; Function Attrs: nounwind uwtable
define ptr @l_Lean_Meta_traverseForallWithPos_visit___rarg___lambda__2___boxed(ptr noundef %0, ptr noundef %1, ptr noundef %2, ptr noundef %3, ptr noundef %4, ptr noundef %5, ptr noundef %6, ptr noundef %7) #0 {
  %9 = tail call ptr @lean_array_push(ptr noundef %0, ptr noundef %7) #3
  %10 = tail call ptr @l_Lean_SubExpr_Pos_push(ptr noundef %1, ptr noundef nonnull inttoptr (i64 3 to ptr)) #3
  %11 = tail call ptr @l_Lean_Meta_traverseForallWithPos_visit___rarg(ptr noundef %2, ptr noundef %3, ptr noundef %4, ptr noundef %5, ptr noundef %9, ptr noundef %10, ptr noundef %6)
  %12 = ptrtoint ptr %1 to i64
  %13 = and i64 %12, 1
  %.not = icmp eq i64 %13, 0
  br i1 %.not, label %14, label %lean_dec.exit

14:                                               ; preds = %8
  %15 = load i32, ptr %1, align 4, !tbaa !4
  %16 = icmp sgt i32 %15, 1
  br i1 %16, label %17, label %19, !prof !13

17:                                               ; preds = %14
  %18 = add nsw i32 %15, -1
  store i32 %18, ptr %1, align 4, !tbaa !4
  br label %lean_dec.exit

19:                                               ; preds = %14
  %.not.i = icmp eq i32 %15, 0
  br i1 %.not.i, label %lean_dec.exit, label %20

20:                                               ; preds = %19
  tail call void @lean_dec_ref_cold(ptr noundef nonnull %1) #3
  br label %lean_dec.exit

lean_dec.exit:                                    ; preds = %20, %19, %17, %8
  ret ptr %11
}